; Function Attrs: mustprogress uwtable
define void @_ZN6icu_7722SimpleLocaleKeyFactoryC2EPNS_7UObjectERKNS_6LocaleEii(ptr noundef nonnull align 8 dereferenceable(156) %0, ptr noundef %1, ptr noundef nonnull align 8 dereferenceable(217) %2, i32 noundef %3, i32 noundef %4) unnamed_addr #1 align 2 personality ptr @__gxx_personality_v0 {
  tail call void @_ZN6icu_7716LocaleKeyFactoryC2Ei(ptr noundef nonnull align 8 dereferenceable(76) %0, i32 noundef %4)
  store ptr getelementptr inbounds nuw inrange(-16, 72) (i8, ptr @_ZTVN6icu_7722SimpleLocaleKeyFactoryE, i64 16), ptr %0, align 8, !tbaa !15
  %6 = getelementptr inbounds nuw i8, ptr %0, i64 80
  store ptr %1, ptr %6, align 8, !tbaa !17
  %7 = getelementptr inbounds nuw i8, ptr %0, i64 88
  store ptr getelementptr inbounds nuw inrange(-16, 88) (i8, ptr @_ZTVN6icu_7713UnicodeStringE, i64 16), ptr %7, align 8, !tbaa !15
  %8 = getelementptr inbounds nuw i8, ptr %0, i64 96
  store i16 2, ptr %8, align 8, !tbaa !26
  %9 = getelementptr inbounds nuw i8, ptr %0, i64 152
  store i32 %3, ptr %9, align 8, !tbaa !25
  %10 = invoke noundef nonnull align 8 dereferenceable(64) ptr @_ZN6icu_7713LocaleUtility18initNameFromLocaleERKNS_6LocaleERNS_13UnicodeStringE(ptr noundef nonnull align 8 dereferenceable(217) %2, ptr noundef nonnull align 8 dereferenceable(64) %7)
          to label %11 unwind label %12

11:                                               ; preds = %5
  ret void

12:                                               ; preds = %5
  %13 = landingpad { ptr, i32 }
          cleanup
  tail call void @_ZN6icu_7713UnicodeStringD1Ev(ptr noundef nonnull align 8 dereferenceable(64) %7) #13
  tail call void @_ZN6icu_7716LocaleKeyFactoryD2Ev(ptr noundef nonnull align 8 dereferenceable(76) %0) #13
  resume { ptr, i32 } %13
}